target datalayout = "e-m:e-p270:32:32-p271:32:32-p272:64:64-i64:64-i128:128-f80:128-n8:16:32:64-S128"
target triple = "x86_64-pc-linux-gnu"

%struct.wpacket_st = type { ptr, ptr, i64, i64, i64, ptr, i8 }

@.str = private unnamed_addr constant [35 x i8] c"../openssl/crypto/hpke/hpke_util.c\00", align 1
@LABEL_HPKEV1 = internal constant [8 x i8] c"HPKE-v1\00", align 1
@__func__.ossl_hpke_labeled_extract = private unnamed_addr constant [26 x i8] c"ossl_hpke_labeled_extract\00", align 1

; Function Attrs: nounwind uwtable
define i32 @ossl_hpke_kdf_extract(ptr noundef %0, ptr noundef %1, i64 noundef %2, ptr noundef %3, i64 noundef %4, ptr noundef %5, i64 noundef %6) #0 {
  %8 = alloca ptr, align 8
  %9 = alloca ptr, align 8
  %10 = alloca i64, align 8
  %11 = alloca ptr, align 8
  %12 = alloca i64, align 8
  %13 = alloca ptr, align 8
  %14 = alloca i64, align 8
  store ptr %0, ptr %8, align 8, !tbaa !29
  store ptr %1, ptr %9, align 8, !tbaa !3
  store i64 %2, ptr %10, align 8, !tbaa !22
  store ptr %3, ptr %11, align 8, !tbaa !3
  store i64 %4, ptr %12, align 8, !tbaa !22
  store ptr %5, ptr %13, align 8, !tbaa !3
  store i64 %6, ptr %14, align 8, !tbaa !22
  %15 = load ptr, ptr %8, align 8, !tbaa !29
  %16 = load ptr, ptr %9, align 8, !tbaa !3
  %17 = load i64, ptr %10, align 8, !tbaa !22
  %18 = load ptr, ptr %11, align 8, !tbaa !3
  %19 = load i64, ptr %12, align 8, !tbaa !22
  %20 = load ptr, ptr %13, align 8, !tbaa !3
  %21 = load i64, ptr %14, align 8, !tbaa !22
  %22 = call i32 @kdf_derive(ptr noundef %15, ptr noundef %16, i64 noundef %17, i32 noundef 1, ptr noundef %18, i64 noundef %19, ptr noundef %20, i64 noundef %21, ptr noundef null, i64 noundef 0)
  ret i32 %22
}

; Function Attrs: nounwind uwtable
define i32 @ossl_hpke_labeled_extract(ptr noundef %0, ptr noundef %1, i64 noundef %2, ptr noundef %3, i64 noundef %4, ptr noundef %5, ptr noundef %6, i64 noundef %7, ptr noundef %8, ptr noundef %9, i64 noundef %10) #0 {
  %12 = alloca i32, align 4
  %13 = alloca ptr, align 8
  %14 = alloca ptr, align 8
  %15 = alloca i64, align 8
  %16 = alloca ptr, align 8
  %17 = alloca i64, align 8
  %18 = alloca ptr, align 8
  %19 = alloca ptr, align 8
  %20 = alloca i64, align 8
  %21 = alloca ptr, align 8
  %22 = alloca ptr, align 8
  %23 = alloca i64, align 8
  %24 = alloca i32, align 4
  %25 = alloca i64, align 8
  %26 = alloca i64, align 8
  %27 = alloca i64, align 8
  %28 = alloca i64, align 8
  %29 = alloca ptr, align 8
  %30 = alloca %struct.wpacket_st, align 8
  %31 = alloca i32, align 4
  store ptr %0, ptr %13, align 8, !tbaa !29
  store ptr %1, ptr %14, align 8, !tbaa !3
  store i64 %2, ptr %15, align 8, !tbaa !22
  store ptr %3, ptr %16, align 8, !tbaa !3
  store i64 %4, ptr %17, align 8, !tbaa !22
  store ptr %5, ptr %18, align 8, !tbaa !3
  store ptr %6, ptr %19, align 8, !tbaa !3
  store i64 %7, ptr %20, align 8, !tbaa !22
  store ptr %8, ptr %21, align 8, !tbaa !3
  store ptr %9, ptr %22, align 8, !tbaa !3
  store i64 %10, ptr %23, align 8, !tbaa !22
  call void @llvm.lifetime.start.p0(i64 4, ptr %24) #5
  store i32 0, ptr %24, align 4, !tbaa !8
  call void @llvm.lifetime.start.p0(i64 8, ptr %25) #5
  store i64 0, ptr %25, align 8, !tbaa !22
  call void @llvm.lifetime.start.p0(i64 8, ptr %26) #5
  store i64 0, ptr %26, align 8, !tbaa !22
  call void @llvm.lifetime.start.p0(i64 8, ptr %27) #5
  store i64 0, ptr %27, align 8, !tbaa !22
  call void @llvm.lifetime.start.p0(i64 8, ptr %28) #5
  store i64 0, ptr %28, align 8, !tbaa !22
  call void @llvm.lifetime.start.p0(i64 8, ptr %29) #5
  store ptr null, ptr %29, align 8, !tbaa !3
  call void @llvm.lifetime.start.p0(i64 56, ptr %30) #5
  store i64 7, ptr %25, align 8, !tbaa !22
  %32 = load ptr, ptr %18, align 8, !tbaa !3
  %33 = call i64 @strlen(ptr noundef %32) #6
  store i64 %33, ptr %26, align 8, !tbaa !22
  %34 = load ptr, ptr %21, align 8, !tbaa !3
  %35 = call i64 @strlen(ptr noundef %34) #6
  store i64 %35, ptr %27, align 8, !tbaa !22
  %36 = load i64, ptr %25, align 8, !tbaa !22
  %37 = load i64, ptr %26, align 8, !tbaa !22
  %38 = add i64 %36, %37
  %39 = load i64, ptr %20, align 8, !tbaa !22
  %40 = add i64 %38, %39
  %41 = load i64, ptr %27, align 8, !tbaa !22
  %42 = add i64 %40, %41
  %43 = load i64, ptr %23, align 8, !tbaa !22
  %44 = add i64 %42, %43
  store i64 %44, ptr %28, align 8, !tbaa !22
  %45 = load i64, ptr %28, align 8, !tbaa !22
  %46 = call noalias ptr @CRYPTO_malloc(i64 noundef %45, ptr noundef @.str, i32 noundef 316)
  store ptr %46, ptr %29, align 8, !tbaa !3
  %47 = load ptr, ptr %29, align 8, !tbaa !3
  %48 = icmp eq ptr %47, null
  br i1 %48, label %49, label %50

49:                                               ; preds = %11
  store i32 0, ptr %12, align 4
  store i32 1, ptr %31, align 4
  br label %100

50:                                               ; preds = %11
  %51 = load ptr, ptr %29, align 8, !tbaa !3
  %52 = load i64, ptr %28, align 8, !tbaa !22
  %53 = call i32 @WPACKET_init_static_len(ptr noundef %30, ptr noundef %51, i64 noundef %52, i64 noundef 0)
  %54 = icmp ne i32 %53, 0
  br i1 %54, label %55, label %85

55:                                               ; preds = %50
  %56 = load i64, ptr %25, align 8, !tbaa !22
  %57 = call i32 @WPACKET_memcpy(ptr noundef %30, ptr noundef @LABEL_HPKEV1, i64 noundef %56)
  %58 = icmp ne i32 %57, 0
  br i1 %58, label %59, label %85

59:                                               ; preds = %55
  %60 = load ptr, ptr %18, align 8, !tbaa !3
  %61 = load i64, ptr %26, align 8, !tbaa !22
  %62 = call i32 @WPACKET_memcpy(ptr noundef %30, ptr noundef %60, i64 noundef %61)
  %63 = icmp ne i32 %62, 0
  br i1 %63, label %64, label %85

64:                                               ; preds = %59
  %65 = load ptr, ptr %19, align 8, !tbaa !3
  %66 = load i64, ptr %20, align 8, !tbaa !22
  %67 = call i32 @WPACKET_memcpy(ptr noundef %30, ptr noundef %65, i64 noundef %66)
  %68 = icmp ne i32 %67, 0
  br i1 %68, label %69, label %85

69:                                               ; preds = %64
  %70 = load ptr, ptr %21, align 8, !tbaa !3
  %71 = load i64, ptr %27, align 8, !tbaa !22
  %72 = call i32 @WPACKET_memcpy(ptr noundef %30, ptr noundef %70, i64 noundef %71)
  %73 = icmp ne i32 %72, 0
  br i1 %73, label %74, label %85

74:                                               ; preds = %69
  %75 = load ptr, ptr %22, align 8, !tbaa !3
  %76 = load i64, ptr %23, align 8, !tbaa !22
  %77 = call i32 @WPACKET_memcpy(ptr noundef %30, ptr noundef %75, i64 noundef %76)
  %78 = icmp ne i32 %77, 0
  br i1 %78, label %79, label %85

79:                                               ; preds = %74
  %80 = call i32 @WPACKET_get_total_written(ptr noundef %30, ptr noundef %28)
  %81 = icmp ne i32 %80, 0
  br i1 %81, label %82, label %85

82:                                               ; preds = %79
  %83 = call i32 @WPACKET_finish(ptr noundef %30)
  %84 = icmp ne i32 %83, 0
  br i1 %84, label %86, label %85

85:                                               ; preds = %82, %79, %74, %69, %64, %59, %55, %50
  call void @ERR_new()
  call void @ERR_set_debug(ptr noundef @.str, i32 noundef 329, ptr noundef @__func__.ossl_hpke_labeled_extract)
  call void (i32, i32, ptr, ...) @ERR_set_error(i32 noundef 57, i32 noundef 106, ptr noundef null)
  br label %95

86:                                               ; preds = %82
  %87 = load ptr, ptr %13, align 8, !tbaa !29
  %88 = load ptr, ptr %14, align 8, !tbaa !3
  %89 = load i64, ptr %15, align 8, !tbaa !22
  %90 = load ptr, ptr %16, align 8, !tbaa !3
  %91 = load i64, ptr %17, align 8, !tbaa !22
  %92 = load ptr, ptr %29, align 8, !tbaa !3
  %93 = load i64, ptr %28, align 8, !tbaa !22
  %94 = call i32 @ossl_hpke_kdf_extract(ptr noundef %87, ptr noundef %88, i64 noundef %89, ptr noundef %90, i64 noundef %91, ptr noundef %92, i64 noundef %93)
  store i32 %94, ptr %24, align 4, !tbaa !8
  br label %95

95:                                               ; preds = %86, %85
  call void @WPACKET_cleanup(ptr noundef %30)
  %96 = load ptr, ptr %29, align 8, !tbaa !3
  %97 = load i64, ptr %28, align 8, !tbaa !22
  call void @OPENSSL_cleanse(ptr noundef %96, i64 noundef %97)
  %98 = load ptr, ptr %29, align 8, !tbaa !3
  call void @CRYPTO_free(ptr noundef %98, ptr noundef @.str, i32 noundef 338)
  %99 = load i32, ptr %24, align 4, !tbaa !8
  store i32 %99, ptr %12, align 4
  store i32 1, ptr %31, align 4
  br label %100

100:                                              ; preds = %95, %49
  call void @llvm.lifetime.end.p0(i64 56, ptr %30) #5
  call void @llvm.lifetime.end.p0(i64 8, ptr %29) #5
  call void @llvm.lifetime.end.p0(i64 8, ptr %28) #5
  call void @llvm.lifetime.end.p0(i64 8, ptr %27) #5
  call void @llvm.lifetime.end.p0(i64 8, ptr %26) #5
  call void @llvm.lifetime.end.p0(i64 8, ptr %25) #5
  call void @llvm.lifetime.end.p0(i64 4, ptr %24) #5
  %101 = load i32, ptr %12, align 4
  ret i32 %101
}