; Function Attrs: nounwind uwtable
define range(i32 0, 2) i32 @ossl_hpke_labeled_extract(ptr noundef %0, ptr noundef %1, i64 noundef %2, ptr noundef %3, i64 noundef %4, ptr noundef %5, ptr noundef %6, i64 noundef %7, ptr noundef %8, ptr noundef %9, i64 noundef %10) local_unnamed_addr #0 {
  %12 = alloca i64, align 8
  %13 = alloca %struct.wpacket_st, align 8
  call void @llvm.lifetime.start.p0(i64 8, ptr nonnull %12) #5
  call void @llvm.lifetime.start.p0(i64 56, ptr nonnull %13) #5
  %14 = tail call i64 @strlen(ptr noundef nonnull dereferenceable(1) %5) #6
  %15 = tail call i64 @strlen(ptr noundef nonnull dereferenceable(1) %8) #6
  %16 = add i64 %7, 7
  %17 = add i64 %16, %10
  %18 = add i64 %17, %14
  %19 = add i64 %18, %15
  store i64 %19, ptr %12, align 8, !tbaa !27
  %20 = tail call noalias ptr @CRYPTO_malloc(i64 noundef %19, ptr noundef nonnull @.str, i32 noundef 316) #5
  %21 = icmp eq ptr %20, null
  br i1 %21, label %44, label %22

22:                                               ; preds = %11
  %23 = call i32 @WPACKET_init_static_len(ptr noundef nonnull %13, ptr noundef nonnull %20, i64 noundef %19, i64 noundef 0) #5
  %.not = icmp eq i32 %23, 0
  br i1 %.not, label %38, label %24

24:                                               ; preds = %22
  %25 = call i32 @WPACKET_memcpy(ptr noundef nonnull %13, ptr noundef nonnull @LABEL_HPKEV1, i64 noundef 7) #5
  %.not29 = icmp eq i32 %25, 0
  br i1 %.not29, label %38, label %26

26:                                               ; preds = %24
  %27 = call i32 @WPACKET_memcpy(ptr noundef nonnull %13, ptr noundef nonnull %5, i64 noundef %14) #5
  %.not30 = icmp eq i32 %27, 0
  br i1 %.not30, label %38, label %28

28:                                               ; preds = %26
  %29 = call i32 @WPACKET_memcpy(ptr noundef nonnull %13, ptr noundef %6, i64 noundef %7) #5
  %.not31 = icmp eq i32 %29, 0
  br i1 %.not31, label %38, label %30

30:                                               ; preds = %28
  %31 = call i32 @WPACKET_memcpy(ptr noundef nonnull %13, ptr noundef nonnull %8, i64 noundef %15) #5
  %.not32 = icmp eq i32 %31, 0
  br i1 %.not32, label %38, label %32

32:                                               ; preds = %30
  %33 = call i32 @WPACKET_memcpy(ptr noundef nonnull %13, ptr noundef %9, i64 noundef %10) #5
  %.not33 = icmp eq i32 %33, 0
  br i1 %.not33, label %38, label %34

34:                                               ; preds = %32
  %35 = call i32 @WPACKET_get_total_written(ptr noundef nonnull %13, ptr noundef nonnull %12) #5
  %.not34 = icmp eq i32 %35, 0
  br i1 %.not34, label %38, label %36

36:                                               ; preds = %34
  %37 = call i32 @WPACKET_finish(ptr noundef nonnull %13) #5
  %.not35 = icmp eq i32 %37, 0
  br i1 %.not35, label %38, label %39

38:                                               ; preds = %36, %34, %32, %30, %28, %26, %24, %22
  call void @ERR_new() #5
  call void @ERR_set_debug(ptr noundef nonnull @.str, i32 noundef 329, ptr noundef nonnull @__func__.ossl_hpke_labeled_extract) #5
  call void (i32, i32, ptr, ...) @ERR_set_error(i32 noundef 57, i32 noundef 106, ptr noundef null) #5
  br label %42

39:                                               ; preds = %36
  %40 = load i64, ptr %12, align 8, !tbaa !27
  %41 = call fastcc range(i32 0, 2) i32 @kdf_derive(ptr noundef %0, ptr noundef %1, i64 noundef %2, i32 noundef 1, ptr noundef %3, i64 noundef %4, ptr noundef nonnull %20, i64 noundef %40, ptr noundef null, i64 noundef 0)
  br label %42

42:                                               ; preds = %39, %38
  %.0 = phi i32 [ %41, %39 ], [ 0, %38 ]
  call void @WPACKET_cleanup(ptr noundef nonnull %13) #5
  %43 = load i64, ptr %12, align 8, !tbaa !27
  call void @OPENSSL_cleanse(ptr noundef nonnull %20, i64 noundef %43) #5
  call void @CRYPTO_free(ptr noundef nonnull %20, ptr noundef nonnull @.str, i32 noundef 338) #5
  br label %44

44:                                               ; preds = %11, %42
  %.027 = phi i32 [ %.0, %42 ], [ 0, %11 ]
  call void @llvm.lifetime.end.p0(i64 56, ptr nonnull %13) #5
  call void @llvm.lifetime.end.p0(i64 8, ptr nonnull %12) #5
  ret i32 %.027
}